; Function Attrs: nofree norecurse nosync nounwind memory(argmem: readwrite) uwtable
define hidden void @ScaleRowUp2_Bilinear_C(ptr noundef readonly captures(none) %0, i64 noundef %1, ptr noundef writeonly captures(none) %2, i64 noundef %3, i32 noundef %4) local_unnamed_addr #0 {
  %6 = getelementptr inbounds i8, ptr %0, i64 %1
  %7 = getelementptr inbounds i8, ptr %2, i64 %3
  %8 = ashr i32 %4, 1
  %9 = icmp sgt i32 %8, 0
  br i1 %9, label %.lr.ph.preheader, label %._crit_edge

.lr.ph.preheader:                                 ; preds = %5
  %wide.trip.count = zext nneg i32 %8 to i64
  br label %.lr.ph

.lr.ph:                                           ; preds = %.lr.ph.preheader, %.lr.ph
  %indvars.iv = phi i64 [ 0, %.lr.ph.preheader ], [ %indvars.iv.next, %.lr.ph ]
  %10 = getelementptr inbounds nuw i8, ptr %0, i64 %indvars.iv
  %11 = load i8, ptr %10, align 1
  %12 = zext i8 %11 to i16
  %13 = mul nuw nsw i16 %12, 9
  %indvars.iv.next = add nuw nsw i64 %indvars.iv, 1
  %14 = getelementptr inbounds nuw i8, ptr %0, i64 %indvars.iv.next
  %15 = load i8, ptr %14, align 1
  %16 = zext i8 %15 to i16
  %17 = getelementptr inbounds nuw i8, ptr %6, i64 %indvars.iv
  %18 = load i8, ptr %17, align 1
  %19 = zext i8 %18 to i16
  %20 = getelementptr inbounds nuw i8, ptr %6, i64 %indvars.iv.next
  %21 = load i8, ptr %20, align 1
  %22 = zext i8 %21 to i16
  %reass.add = add nuw nsw i16 %19, %16
  %reass.mul = mul nuw nsw i16 %reass.add, 3
  %23 = add nuw nsw i16 %13, 8
  %24 = add nuw nsw i16 %23, %22
  %25 = add nuw nsw i16 %24, %reass.mul
  %26 = lshr i16 %25, 4
  %27 = trunc nuw i16 %26 to i8
  %28 = shl nuw nsw i64 %indvars.iv, 1
  %29 = getelementptr inbounds nuw i8, ptr %2, i64 %28
  store i8 %27, ptr %29, align 1
  %30 = load i8, ptr %10, align 1
  %31 = zext i8 %30 to i16
  %32 = load i8, ptr %14, align 1
  %33 = zext i8 %32 to i16
  %34 = mul nuw nsw i16 %33, 9
  %35 = load i8, ptr %17, align 1
  %36 = zext i8 %35 to i16
  %37 = load i8, ptr %20, align 1
  %38 = zext i8 %37 to i16
  %reass.add49 = add nuw nsw i16 %38, %31
  %reass.mul50 = mul nuw nsw i16 %reass.add49, 3
  %39 = add nuw nsw i16 %34, 8
  %40 = add nuw nsw i16 %39, %36
  %41 = add nuw nsw i16 %40, %reass.mul50
  %42 = lshr i16 %41, 4
  %43 = trunc nuw i16 %42 to i8
  %44 = or disjoint i64 %28, 1
  %45 = getelementptr inbounds nuw i8, ptr %2, i64 %44
  store i8 %43, ptr %45, align 1
  %46 = load i8, ptr %10, align 1
  %47 = zext i8 %46 to i16
  %48 = load i8, ptr %14, align 1
  %49 = zext i8 %48 to i16
  %50 = load i8, ptr %17, align 1
  %51 = zext i8 %50 to i16
  %52 = mul nuw nsw i16 %51, 9
  %53 = load i8, ptr %20, align 1
  %54 = zext i8 %53 to i16
  %reass.add51 = add nuw nsw i16 %54, %47
  %reass.mul52 = mul nuw nsw i16 %reass.add51, 3
  %55 = add nuw nsw i16 %49, 8
  %56 = add nuw nsw i16 %55, %52
  %57 = add nuw nsw i16 %56, %reass.mul52
  %58 = lshr i16 %57, 4
  %59 = trunc nuw i16 %58 to i8
  %60 = getelementptr inbounds nuw i8, ptr %7, i64 %28
  store i8 %59, ptr %60, align 1
  %61 = load i8, ptr %10, align 1
  %62 = zext i8 %61 to i16
  %63 = load i8, ptr %14, align 1
  %64 = zext i8 %63 to i16
  %65 = load i8, ptr %17, align 1
  %66 = zext i8 %65 to i16
  %67 = load i8, ptr %20, align 1
  %68 = zext i8 %67 to i16
  %69 = mul nuw nsw i16 %68, 9
  %reass.add53 = add nuw nsw i16 %66, %64
  %reass.mul54 = mul nuw nsw i16 %reass.add53, 3
  %70 = add nuw nsw i16 %62, 8
  %71 = add nuw nsw i16 %70, %69
  %72 = add nuw nsw i16 %71, %reass.mul54
  %73 = lshr i16 %72, 4
  %74 = trunc nuw i16 %73 to i8
  %75 = getelementptr inbounds nuw i8, ptr %7, i64 %44
  store i8 %74, ptr %75, align 1
  %exitcond.not = icmp eq i64 %indvars.iv.next, %wide.trip.count
  br i1 %exitcond.not, label %._crit_edge, label %.lr.ph, !llvm.loop !6

._crit_edge:                                      ; preds = %.lr.ph, %5
  ret void
}